target datalayout = "e-m:e-p270:32:32-p271:32:32-p272:64:64-i64:64-i128:128-f80:128-n8:16:32:64-S128"
target triple = "x86_64-pc-linux-gnu"

%"class.llvm::Value" = type { i8, i8, i16, i32, ptr, ptr }

; Function Attrs: mustprogress nounwind uwtable
define linkonce_odr hidden noundef zeroext i1 @_ZNK4llvm5Value16isUsedByMetadataEv(ptr noundef nonnull align 8 dereferenceable(24) %0) #1 comdat align 2 {
  %2 = alloca ptr, align 8
  store ptr %0, ptr %2, align 8
  %3 = load ptr, ptr %2, align 8
  %4 = getelementptr inbounds nuw %"class.llvm::Value", ptr %3, i32 0, i32 3
  %5 = load i32, ptr %4, align 4
  %6 = lshr i32 %5, 27
  %7 = and i32 %6, 1
  %8 = icmp ne i32 %7, 0
  ret i1 %8
}

; Function Attrs: mustprogress nounwind uwtable
define dso_local void @_ZN4llvm5ValueD2Ev(ptr noundef nonnull align 8 dereferenceable(24) %0) unnamed_addr #1 align 2 {
  %2 = alloca ptr, align 8
  store ptr %0, ptr %2, align 8
  %3 = load ptr, ptr %2, align 8
  %4 = getelementptr inbounds nuw %"class.llvm::Value", ptr %3, i32 0, i32 1
  %5 = load i8, ptr %4, align 1
  %6 = and i8 %5, 1
  %7 = icmp ne i8 %6, 0
  br i1 %7, label %8, label %9

8:                                                ; preds = %1
  call void @_ZN4llvm15ValueHandleBase14ValueIsDeletedEPNS_5ValueE(ptr noundef %3)
  br label %9

9:                                                ; preds = %8, %1
  %10 = call noundef zeroext i1 @_ZNK4llvm5Value16isUsedByMetadataEv(ptr noundef nonnull align 8 dereferenceable(24) %3)
  br i1 %10, label %11, label %12

11:                                               ; preds = %9
  call void @_ZN4llvm15ValueAsMetadata14handleDeletionEPNS_5ValueE(ptr noundef %3)
  br label %12

12:                                               ; preds = %11, %9
  %13 = getelementptr inbounds nuw %"class.llvm::Value", ptr %3, i32 0, i32 3
  %14 = load i32, ptr %13, align 4
  %15 = lshr i32 %14, 29
  %16 = and i32 %15, 1
  %17 = icmp ne i32 %16, 0
  br i1 %17, label %18, label %19

18:                                               ; preds = %12
  call void @_ZN4llvm5Value13clearMetadataEv(ptr noundef nonnull align 8 dereferenceable(24) %3)
  br label %19

19:                                               ; preds = %18, %12
  call void @_ZN4llvm5Value16destroyValueNameEv(ptr noundef nonnull align 8 dereferenceable(24) %3)
  ret void
}