; Function Attrs: mustprogress nounwind uwtable
define dso_local void @_ZN4llvm5ValueD2Ev(ptr noundef nonnull align 8 dereferenceable(24) %0) unnamed_addr #0 align 2 {
  %2 = getelementptr inbounds nuw i8, ptr %0, i64 1
  %3 = load i8, ptr %2, align 1
  %4 = and i8 %3, 1
  %.not = icmp eq i8 %4, 0
  br i1 %.not, label %6, label %5

5:                                                ; preds = %1
  tail call void @_ZN4llvm15ValueHandleBase14ValueIsDeletedEPNS_5ValueE(ptr noundef nonnull %0)
  br label %6

6:                                                ; preds = %5, %1
  %7 = getelementptr inbounds nuw i8, ptr %0, i64 4
  %8 = load i32, ptr %7, align 4
  %9 = and i32 %8, 134217728
  %.not2 = icmp eq i32 %9, 0
  br i1 %.not2, label %11, label %10

10:                                               ; preds = %6
  tail call void @_ZN4llvm15ValueAsMetadata14handleDeletionEPNS_5ValueE(ptr noundef nonnull %0) #21
  %.pre = load i32, ptr %7, align 4
  br label %11

11:                                               ; preds = %10, %6
  %12 = phi i32 [ %.pre, %10 ], [ %8, %6 ]
  %13 = and i32 %12, 536870912
  %.not1 = icmp eq i32 %13, 0
  br i1 %.not1, label %15, label %14

14:                                               ; preds = %11
  tail call void @_ZN4llvm5Value13clearMetadataEv(ptr noundef nonnull align 8 dereferenceable(24) %0) #21
  br label %15

15:                                               ; preds = %14, %11
  tail call void @_ZN4llvm5Value16destroyValueNameEv(ptr noundef nonnull align 8 dereferenceable(24) %0)
  ret void
}